; Function Attrs: mustprogress uwtable
define void @_ZNK5Ipopt14DenseGenMatrix18ComputeColAMaxImplERNS_6VectorEb(ptr noundef nonnull readonly align 8 captures(none) dereferenceable(104) %0, ptr noundef nonnull align 8 dereferenceable(205) %1, i1 zeroext %2) unnamed_addr #2 align 2 {
  %4 = getelementptr inbounds nuw i8, ptr %1, i64 232
  %5 = load i8, ptr %4, align 8, !tbaa !102, !range !103, !noundef !104
  %6 = trunc nuw i8 %5 to i1
  br i1 %6, label %7, label %12

7:                                                ; preds = %3
  %8 = getelementptr inbounds nuw i8, ptr %1, i64 233
  %9 = load i8, ptr %8, align 1, !tbaa !105, !range !103, !noundef !104
  %10 = trunc nuw i8 %9 to i1
  br i1 %10, label %11, label %12

11:                                               ; preds = %7
  tail call void @_ZN5Ipopt11DenseVector22set_values_from_scalarEv(ptr noundef nonnull align 8 dereferenceable(248) %1)
  br label %12

12:                                               ; preds = %11, %7, %3
  tail call void @_ZN5Ipopt12TaggedObject13ObjectChangedEv(ptr noundef nonnull align 8 dereferenceable(248) %1)
  store i8 1, ptr %4, align 8, !tbaa !102
  %13 = getelementptr inbounds nuw i8, ptr %1, i64 233
  store i8 0, ptr %13, align 1, !tbaa !105
  %14 = getelementptr inbounds nuw i8, ptr %1, i64 216
  %15 = load ptr, ptr %14, align 8, !tbaa !38
  %16 = icmp eq ptr %15, null
  br i1 %16, label %17, label %_ZN5Ipopt11DenseVector6ValuesEv.exit

17:                                               ; preds = %12
  %18 = getelementptr inbounds nuw i8, ptr %1, i64 208
  %19 = load ptr, ptr %18, align 8, !tbaa !106
  %20 = getelementptr inbounds nuw i8, ptr %19, i64 12
  %21 = load i32, ptr %20, align 4, !tbaa !107
  %22 = icmp sgt i32 %21, 0
  br i1 %22, label %23, label %_ZNK5Ipopt16DenseVectorSpace23AllocateInternalStorageEv.exit.i.i

23:                                               ; preds = %17
  %24 = zext nneg i32 %21 to i64
  %25 = shl nuw nsw i64 %24, 3
  %26 = tail call noalias noundef nonnull ptr @_Znam(i64 noundef %25) #21
  br label %_ZNK5Ipopt16DenseVectorSpace23AllocateInternalStorageEv.exit.i.i

_ZNK5Ipopt16DenseVectorSpace23AllocateInternalStorageEv.exit.i.i: ; preds = %23, %17
  %.0.i.i.i = phi ptr [ %26, %23 ], [ null, %17 ]
  store ptr %.0.i.i.i, ptr %14, align 8, !tbaa !38
  br label %_ZN5Ipopt11DenseVector6ValuesEv.exit

_ZN5Ipopt11DenseVector6ValuesEv.exit:             ; preds = %12, %_ZNK5Ipopt16DenseVectorSpace23AllocateInternalStorageEv.exit.i.i
  %27 = phi ptr [ %15, %12 ], [ %.0.i.i.i, %_ZNK5Ipopt16DenseVectorSpace23AllocateInternalStorageEv.exit.i.i ]
  %28 = getelementptr inbounds nuw i8, ptr %0, i64 56
  %29 = load ptr, ptr %28, align 8, !tbaa !6
  %30 = getelementptr inbounds nuw i8, ptr %29, i64 16
  %31 = load i32, ptr %30, align 8, !tbaa !31
  %32 = icmp sgt i32 %31, 0
  br i1 %32, label %.lr.ph.preheader, label %._crit_edge

.lr.ph.preheader:                                 ; preds = %_ZN5Ipopt11DenseVector6ValuesEv.exit
  %33 = getelementptr inbounds nuw i8, ptr %0, i64 80
  %34 = load ptr, ptr %33, align 8, !tbaa !34
  %.phi.trans.insert = getelementptr inbounds nuw i8, ptr %29, i64 12
  %.pre = load i32, ptr %.phi.trans.insert, align 4, !tbaa !33
  br label %.lr.ph

._crit_edge:                                      ; preds = %.lr.ph, %_ZN5Ipopt11DenseVector6ValuesEv.exit
  ret void

.lr.ph:                                           ; preds = %.lr.ph.preheader, %.lr.ph
  %35 = phi i32 [ %.pre, %.lr.ph.preheader ], [ %46, %.lr.ph ]
  %indvars.iv = phi i64 [ 0, %.lr.ph.preheader ], [ %indvars.iv.next, %.lr.ph ]
  %.014 = phi ptr [ %34, %.lr.ph.preheader ], [ %48, %.lr.ph ]
  %36 = tail call noundef i32 @_ZN5Ipopt11IpBlasIamaxEiPKdi(i32 noundef %35, ptr noundef %.014, i32 noundef 1)
  %37 = getelementptr inbounds nuw double, ptr %27, i64 %indvars.iv
  %38 = load double, ptr %37, align 8, !tbaa !47
  %39 = sext i32 %36 to i64
  %40 = getelementptr inbounds double, ptr %.014, i64 %39
  %41 = load double, ptr %40, align 8, !tbaa !47
  %42 = tail call noundef double @llvm.fabs.f64(double %41)
  %43 = fcmp olt double %38, %42
  %.sroa.speculated.i = select i1 %43, double %42, double %38
  store double %.sroa.speculated.i, ptr %37, align 8, !tbaa !47
  %44 = load ptr, ptr %28, align 8, !tbaa !6
  %45 = getelementptr inbounds nuw i8, ptr %44, i64 12
  %46 = load i32, ptr %45, align 4, !tbaa !33
  %47 = sext i32 %46 to i64
  %48 = getelementptr inbounds double, ptr %.014, i64 %47
  %indvars.iv.next = add nuw nsw i64 %indvars.iv, 1
  %49 = getelementptr inbounds nuw i8, ptr %44, i64 16
  %50 = load i32, ptr %49, align 8, !tbaa !31
  %51 = sext i32 %50 to i64
  %52 = icmp slt i64 %indvars.iv.next, %51
  br i1 %52, label %.lr.ph, label %._crit_edge, !llvm.loop !114
}